target datalayout = "e-m:e-p270:32:32-p271:32:32-p272:64:64-i64:64-i128:128-f80:128-n8:16:32:64-S128"
target triple = "x86_64-unknown-linux-gnu"

%"class.std::__cxx11::basic_string" = type { %"struct.std::__cxx11::basic_string<char>::_Alloc_hider", i64, %union.anon }
%"struct.std::__cxx11::basic_string<char>::_Alloc_hider" = type { ptr }
%union.anon = type { i64, [8 x i8] }
%"struct.proxygen::FileServerListGenerator::Params" = type <{ %"class.std::__cxx11::basic_string", i32, [4 x i8], %"class.std::__cxx11::basic_string", i16, [6 x i8] }>
%"class.proxygen::FileServerListGenerator" = type { %"class.proxygen::ServerListGenerator.base", [4 x i8], %"struct.proxygen::FileServerListGenerator::Params" }
%"class.proxygen::ServerListGenerator.base" = type <{ ptr, ptr, i32 }>
%"class.proxygen::ServerListGenerator" = type <{ ptr, ptr, i32, [4 x i8] }>

@.str.8 = private unnamed_addr constant [98 x i8] c"FileServerListGenerator cannot accept a non-empty poolName parameter when FileType is PLAIN_TEXT.\00", align 1
@_ZTISt16invalid_argument = external constant ptr
@.str.9 = private unnamed_addr constant [89 x i8] c"FileServerListGenerator cannot accept an empty poolName parameter when FileType is JSON.\00", align 1
@_ZTVN8proxygen19ServerListGeneratorE = external unnamed_addr constant { [8 x ptr] }, align 8

; Function Attrs: mustprogress nounwind uwtable
define linkonce_odr void @_ZN8proxygen19ServerListGeneratorD2Ev(ptr noundef nonnull align 8 dereferenceable(20) %this) unnamed_addr #2 comdat align 2 personality ptr @__gxx_personality_v0 {
entry:
  %this.addr = alloca ptr, align 8
  store ptr %this, ptr %this.addr, align 8
  %this1 = load ptr, ptr %this.addr, align 8
  store ptr getelementptr inbounds ({ [8 x ptr] }, ptr @_ZTVN8proxygen19ServerListGeneratorE, i32 0, i32 0, i32 2), ptr %this1, align 8
  %vtable = load ptr, ptr %this1, align 8
  %vfn = getelementptr inbounds ptr, ptr %vtable, i64 3
  %0 = load ptr, ptr %vfn, align 8
  invoke void %0(ptr noundef nonnull align 8 dereferenceable(20) %this1)
          to label %invoke.cont unwind label %terminate.lpad

invoke.cont:                                      ; preds = %entry
  ret void

terminate.lpad:                                   ; preds = %entry
  %1 = landingpad { ptr, i32 }
          catch ptr null
  %2 = extractvalue { ptr, i32 } %1, 0
  call void @__clang_call_terminate(ptr %2) #17
  unreachable
}

; Function Attrs: mustprogress nounwind uwtable
define linkonce_odr void @_ZN8proxygen23FileServerListGenerator6ParamsD2Ev(ptr noundef nonnull align 8 dereferenceable(74) %this) unnamed_addr #2 comdat align 2 {
entry:
  %this.addr = alloca ptr, align 8
  store ptr %this, ptr %this.addr, align 8
  %this1 = load ptr, ptr %this.addr, align 8
  %poolName = getelementptr inbounds %"struct.proxygen::FileServerListGenerator::Params", ptr %this1, i32 0, i32 3
  call void @_ZNSt7__cxx1112basic_stringIcSt11char_traitsIcESaIcEED1Ev(ptr noundef nonnull align 8 dereferenceable(32) %poolName) #15
  %fileName = getelementptr inbounds %"struct.proxygen::FileServerListGenerator::Params", ptr %this1, i32 0, i32 0
  call void @_ZNSt7__cxx1112basic_stringIcSt11char_traitsIcESaIcEED1Ev(ptr noundef nonnull align 8 dereferenceable(32) %fileName) #15
  ret void
}

; Function Attrs: mustprogress nounwind uwtable
define linkonce_odr void @_ZN8proxygen23FileServerListGenerator6ParamsC2ENSt7__cxx1112basic_stringIcSt11char_traitsIcESaIcEEENS0_8FileTypeES7_t(ptr noundef nonnull align 8 dereferenceable(74) %this, ptr noundef %file, i32 noundef %fileType, ptr noundef %pool, i16 noundef zeroext %port) unnamed_addr #2 comdat align 2 {
entry:
  %this.addr = alloca ptr, align 8
  %file.indirect_addr = alloca ptr, align 8
  %fileType.addr = alloca i32, align 4
  %pool.indirect_addr = alloca ptr, align 8
  %port.addr = alloca i16, align 2
  store ptr %this, ptr %this.addr, align 8
  store ptr %file, ptr %file.indirect_addr, align 8
  store i32 %fileType, ptr %fileType.addr, align 4
  store ptr %pool, ptr %pool.indirect_addr, align 8
  store i16 %port, ptr %port.addr, align 2
  %this1 = load ptr, ptr %this.addr, align 8
  %fileName = getelementptr inbounds %"struct.proxygen::FileServerListGenerator::Params", ptr %this1, i32 0, i32 0
  call void @_ZNSt7__cxx1112basic_stringIcSt11char_traitsIcESaIcEEC1EOS4_(ptr noundef nonnull align 8 dereferenceable(32) %fileName, ptr noundef nonnull align 8 dereferenceable(32) %file) #15
  %fileType2 = getelementptr inbounds %"struct.proxygen::FileServerListGenerator::Params", ptr %this1, i32 0, i32 1
  %0 = load i32, ptr %fileType.addr, align 4
  store i32 %0, ptr %fileType2, align 8
  %poolName = getelementptr inbounds %"struct.proxygen::FileServerListGenerator::Params", ptr %this1, i32 0, i32 3
  call void @_ZNSt7__cxx1112basic_stringIcSt11char_traitsIcESaIcEEC1EOS4_(ptr noundef nonnull align 8 dereferenceable(32) %poolName, ptr noundef nonnull align 8 dereferenceable(32) %pool) #15
  %port3 = getelementptr inbounds %"struct.proxygen::FileServerListGenerator::Params", ptr %this1, i32 0, i32 4
  %1 = load i16, ptr %port.addr, align 2
  store i16 %1, ptr %port3, align 8
  ret void
}

; Function Attrs: mustprogress nounwind uwtable
define linkonce_odr void @_ZN8proxygen19ServerListGeneratorC2EPN5folly9EventBaseE(ptr noundef nonnull align 8 dereferenceable(20) %this, ptr noundef %base) unnamed_addr #2 comdat align 2 {
entry:
  %this.addr = alloca ptr, align 8
  %base.addr = alloca ptr, align 8
  store ptr %this, ptr %this.addr, align 8
  store ptr %base, ptr %base.addr, align 8
  %this1 = load ptr, ptr %this.addr, align 8
  store ptr getelementptr inbounds ({ [8 x ptr] }, ptr @_ZTVN8proxygen19ServerListGeneratorE, i32 0, i32 0, i32 2), ptr %this1, align 8
  %eventBase_ = getelementptr inbounds %"class.proxygen::ServerListGenerator", ptr %this1, i32 0, i32 1
  %0 = load ptr, ptr %base.addr, align 8
  store ptr %0, ptr %eventBase_, align 8
  %groupId_ = getelementptr inbounds %"class.proxygen::ServerListGenerator", ptr %this1, i32 0, i32 2
  store i32 -1, ptr %groupId_, align 8
  ret void
}

; Function Attrs: mustprogress uwtable
define void @_ZN8proxygen23FileServerListGeneratorC2ERKNSt7__cxx1112basic_stringIcSt11char_traitsIcESaIcEEENS0_8FileTypeES8_t(ptr noundef nonnull align 8 dereferenceable(104) %this, ptr noundef nonnull align 8 dereferenceable(32) %fileName, i32 noundef %fileType, ptr noundef nonnull align 8 dereferenceable(32) %poolName, i16 noundef zeroext %port) unnamed_addr #0 align 2 personality ptr @__gxx_personality_v0 {
entry:
  %this.addr = alloca ptr, align 8
  %fileName.addr = alloca ptr, align 8
  %fileType.addr = alloca i32, align 4
  %poolName.addr = alloca ptr, align 8
  %port.addr = alloca i16, align 2
  %agg.tmp = alloca %"class.std::__cxx11::basic_string", align 8
  %exn.slot = alloca ptr, align 8
  %ehselector.slot = alloca i32, align 4
  %agg.tmp2 = alloca %"class.std::__cxx11::basic_string", align 8
  store ptr %this, ptr %this.addr, align 8
  store ptr %fileName, ptr %fileName.addr, align 8
  store i32 %fileType, ptr %fileType.addr, align 4
  store ptr %poolName, ptr %poolName.addr, align 8
  store i16 %port, ptr %port.addr, align 2
  %this1 = load ptr, ptr %this.addr, align 8
  call void @_ZN8proxygen19ServerListGeneratorC2EPN5folly9EventBaseE(ptr noundef nonnull align 8 dereferenceable(20) %this1, ptr noundef null)
  store ptr getelementptr inbounds ({ [8 x ptr] }, ptr @_ZTVN8proxygen23FileServerListGeneratorE, i32 0, i32 0, i32 2), ptr %this1, align 8
  %params_ = getelementptr inbounds %"class.proxygen::FileServerListGenerator", ptr %this1, i32 0, i32 2
  %0 = load ptr, ptr %fileName.addr, align 8
  invoke void @_ZNSt7__cxx1112basic_stringIcSt11char_traitsIcESaIcEEC1ERKS4_(ptr noundef nonnull align 8 dereferenceable(32) %agg.tmp, ptr noundef nonnull align 8 dereferenceable(32) %0)
          to label %invoke.cont unwind label %lpad

invoke.cont:                                      ; preds = %entry
  %1 = load i32, ptr %fileType.addr, align 4
  %2 = load ptr, ptr %poolName.addr, align 8
  invoke void @_ZNSt7__cxx1112basic_stringIcSt11char_traitsIcESaIcEEC1ERKS4_(ptr noundef nonnull align 8 dereferenceable(32) %agg.tmp2, ptr noundef nonnull align 8 dereferenceable(32) %2)
          to label %invoke.cont4 unwind label %lpad3

invoke.cont4:                                     ; preds = %invoke.cont
  %3 = load i16, ptr %port.addr, align 2
  invoke void @_ZN8proxygen23FileServerListGenerator6ParamsC2ENSt7__cxx1112basic_stringIcSt11char_traitsIcESaIcEEENS0_8FileTypeES7_t(ptr noundef nonnull align 8 dereferenceable(74) %params_, ptr noundef %agg.tmp, i32 noundef %1, ptr noundef %agg.tmp2, i16 noundef zeroext %3)
          to label %invoke.cont6 unwind label %lpad5

invoke.cont6:                                     ; preds = %invoke.cont4
  call void @_ZNSt7__cxx1112basic_stringIcSt11char_traitsIcESaIcEED1Ev(ptr noundef nonnull align 8 dereferenceable(32) %agg.tmp2) #15
  call void @_ZNSt7__cxx1112basic_stringIcSt11char_traitsIcESaIcEED1Ev(ptr noundef nonnull align 8 dereferenceable(32) %agg.tmp) #15
  %4 = load i32, ptr %fileType.addr, align 4
  %cmp = icmp eq i32 %4, 0
  br i1 %cmp, label %land.lhs.true, label %if.end

land.lhs.true:                                    ; preds = %invoke.cont6
  %5 = load ptr, ptr %poolName.addr, align 8
  %call = call noundef zeroext i1 @_ZNKSt7__cxx1112basic_stringIcSt11char_traitsIcESaIcEE5emptyEv(ptr noundef nonnull align 8 dereferenceable(32) %5) #15
  br i1 %call, label %if.end, label %if.then

if.then:                                          ; preds = %land.lhs.true
  %exception = call ptr @__cxa_allocate_exception(i64 16) #15
  invoke void @_ZNSt16invalid_argumentC1EPKc(ptr noundef nonnull align 8 dereferenceable(16) %exception, ptr noundef @.str.8)
          to label %invoke.cont8 unwind label %lpad7

invoke.cont8:                                     ; preds = %if.then
  invoke void @__cxa_throw(ptr %exception, ptr @_ZTISt16invalid_argument, ptr @_ZNSt16invalid_argumentD1Ev) #18
          to label %unreachable unwind label %lpad10

lpad:                                             ; preds = %entry
  %6 = landingpad { ptr, i32 }
          cleanup
  %7 = extractvalue { ptr, i32 } %6, 0
  store ptr %7, ptr %exn.slot, align 8
  %8 = extractvalue { ptr, i32 } %6, 1
  store i32 %8, ptr %ehselector.slot, align 4
  br label %ehcleanup21

lpad3:                                            ; preds = %invoke.cont
  %9 = landingpad { ptr, i32 }
          cleanup
  %10 = extractvalue { ptr, i32 } %9, 0
  store ptr %10, ptr %exn.slot, align 8
  %11 = extractvalue { ptr, i32 } %9, 1
  store i32 %11, ptr %ehselector.slot, align 4
  br label %ehcleanup

lpad5:                                            ; preds = %invoke.cont4
  %12 = landingpad { ptr, i32 }
          cleanup
  %13 = extractvalue { ptr, i32 } %12, 0
  store ptr %13, ptr %exn.slot, align 8
  %14 = extractvalue { ptr, i32 } %12, 1
  store i32 %14, ptr %ehselector.slot, align 4
  call void @_ZNSt7__cxx1112basic_stringIcSt11char_traitsIcESaIcEED1Ev(ptr noundef nonnull align 8 dereferenceable(32) %agg.tmp2) #15
  br label %ehcleanup

ehcleanup:                                        ; preds = %lpad5, %lpad3
  call void @_ZNSt7__cxx1112basic_stringIcSt11char_traitsIcESaIcEED1Ev(ptr noundef nonnull align 8 dereferenceable(32) %agg.tmp) #15
  br label %ehcleanup21

lpad7:                                            ; preds = %if.then
  %15 = landingpad { ptr, i32 }
          cleanup
  %16 = extractvalue { ptr, i32 } %15, 0
  store ptr %16, ptr %exn.slot, align 8
  %17 = extractvalue { ptr, i32 } %15, 1
  store i32 %17, ptr %ehselector.slot, align 4
  call void @__cxa_free_exception(ptr %exception) #15
  br label %ehcleanup20

lpad10:                                           ; preds = %invoke.cont17, %invoke.cont8
  %18 = landingpad { ptr, i32 }
          cleanup
  %19 = extractvalue { ptr, i32 } %18, 0
  store ptr %19, ptr %exn.slot, align 8
  %20 = extractvalue { ptr, i32 } %18, 1
  store i32 %20, ptr %ehselector.slot, align 4
  br label %ehcleanup20

if.end:                                           ; preds = %land.lhs.true, %invoke.cont6
  %21 = load i32, ptr %fileType.addr, align 4
  %cmp11 = icmp eq i32 %21, 1
  br i1 %cmp11, label %land.lhs.true12, label %if.end19

land.lhs.true12:                                  ; preds = %if.end
  %22 = load ptr, ptr %poolName.addr, align 8
  %call13 = call noundef zeroext i1 @_ZNKSt7__cxx1112basic_stringIcSt11char_traitsIcESaIcEE5emptyEv(ptr noundef nonnull align 8 dereferenceable(32) %22) #15
  br i1 %call13, label %if.then14, label %if.end19

if.then14:                                        ; preds = %land.lhs.true12
  %exception15 = call ptr @__cxa_allocate_exception(i64 16) #15
  invoke void @_ZNSt16invalid_argumentC1EPKc(ptr noundef nonnull align 8 dereferenceable(16) %exception15, ptr noundef @.str.9)
          to label %invoke.cont17 unwind label %lpad16

invoke.cont17:                                    ; preds = %if.then14
  invoke void @__cxa_throw(ptr %exception15, ptr @_ZTISt16invalid_argument, ptr @_ZNSt16invalid_argumentD1Ev) #18
          to label %unreachable unwind label %lpad10

lpad16:                                           ; preds = %if.then14
  %23 = landingpad { ptr, i32 }
          cleanup
  %24 = extractvalue { ptr, i32 } %23, 0
  store ptr %24, ptr %exn.slot, align 8
  %25 = extractvalue { ptr, i32 } %23, 1
  store i32 %25, ptr %ehselector.slot, align 4
  call void @__cxa_free_exception(ptr %exception15) #15
  br label %ehcleanup20

if.end19:                                         ; preds = %land.lhs.true12, %if.end
  ret void

ehcleanup20:                                      ; preds = %lpad16, %lpad10, %lpad7
  call void @_ZN8proxygen23FileServerListGenerator6ParamsD2Ev(ptr noundef nonnull align 8 dereferenceable(74) %params_) #15
  br label %ehcleanup21

ehcleanup21:                                      ; preds = %ehcleanup20, %ehcleanup, %lpad
  call void @_ZN8proxygen19ServerListGeneratorD2Ev(ptr noundef nonnull align 8 dereferenceable(20) %this1) #15
  br label %eh.resume

eh.resume:                                        ; preds = %ehcleanup21
  %exn = load ptr, ptr %exn.slot, align 8
  %sel = load i32, ptr %ehselector.slot, align 4
  %lpad.val = insertvalue { ptr, i32 } poison, ptr %exn, 0
  %lpad.val22 = insertvalue { ptr, i32 } %lpad.val, i32 %sel, 1
  resume { ptr, i32 } %lpad.val22

unreachable:                                      ; preds = %invoke.cont17, %invoke.cont8
  unreachable
}