; Function Attrs: mustprogress uwtable
define void @_ZN8proxygen23FileServerListGeneratorC2ERKNSt7__cxx1112basic_stringIcSt11char_traitsIcESaIcEEENS0_8FileTypeES8_t(ptr noundef nonnull align 8 dereferenceable(104) %this, ptr noundef nonnull align 8 dereferenceable(32) %fileName, i32 noundef %fileType, ptr noundef nonnull align 8 dereferenceable(32) %poolName, i16 noundef zeroext %port) unnamed_addr #0 align 2 personality ptr @__gxx_personality_v0 {
entry:
  %agg.tmp = alloca %"class.std::__cxx11::basic_string", align 8
  %agg.tmp2 = alloca %"class.std::__cxx11::basic_string", align 8
  %eventBase_.i = getelementptr inbounds i8, ptr %this, i64 8
  store ptr null, ptr %eventBase_.i, align 8
  %groupId_.i = getelementptr inbounds i8, ptr %this, i64 16
  store i32 -1, ptr %groupId_.i, align 8
  store ptr getelementptr inbounds ({ [8 x ptr] }, ptr @_ZTVN8proxygen23FileServerListGeneratorE, i64 0, i32 0, i64 2), ptr %this, align 8
  %params_ = getelementptr inbounds i8, ptr %this, i64 24
  invoke void @_ZNSt7__cxx1112basic_stringIcSt11char_traitsIcESaIcEEC1ERKS4_(ptr noundef nonnull align 8 dereferenceable(32) %agg.tmp, ptr noundef nonnull align 8 dereferenceable(32) %fileName)
          to label %invoke.cont unwind label %lpad

invoke.cont:                                      ; preds = %entry
  invoke void @_ZNSt7__cxx1112basic_stringIcSt11char_traitsIcESaIcEEC1ERKS4_(ptr noundef nonnull align 8 dereferenceable(32) %agg.tmp2, ptr noundef nonnull align 8 dereferenceable(32) %poolName)
          to label %invoke.cont4 unwind label %lpad3

invoke.cont4:                                     ; preds = %invoke.cont
  call void @_ZNSt7__cxx1112basic_stringIcSt11char_traitsIcESaIcEEC1EOS4_(ptr noundef nonnull align 8 dereferenceable(32) %params_, ptr noundef nonnull align 8 dereferenceable(32) %agg.tmp) #18
  %fileType2.i = getelementptr inbounds i8, ptr %this, i64 56
  store i32 %fileType, ptr %fileType2.i, align 8
  %poolName.i = getelementptr inbounds i8, ptr %this, i64 64
  call void @_ZNSt7__cxx1112basic_stringIcSt11char_traitsIcESaIcEEC1EOS4_(ptr noundef nonnull align 8 dereferenceable(32) %poolName.i, ptr noundef nonnull align 8 dereferenceable(32) %agg.tmp2) #18
  %port3.i = getelementptr inbounds i8, ptr %this, i64 96
  store i16 %port, ptr %port3.i, align 8
  call void @_ZNSt7__cxx1112basic_stringIcSt11char_traitsIcESaIcEED1Ev(ptr noundef nonnull align 8 dereferenceable(32) %agg.tmp2) #18
  call void @_ZNSt7__cxx1112basic_stringIcSt11char_traitsIcESaIcEED1Ev(ptr noundef nonnull align 8 dereferenceable(32) %agg.tmp) #18
  switch i32 %fileType, label %if.end19 [
    i32 0, label %land.lhs.true
    i32 1, label %land.lhs.true12
  ]

land.lhs.true:                                    ; preds = %invoke.cont4
  %call = call noundef zeroext i1 @_ZNKSt7__cxx1112basic_stringIcSt11char_traitsIcESaIcEE5emptyEv(ptr noundef nonnull align 8 dereferenceable(32) %poolName) #18
  br i1 %call, label %if.end19, label %if.then

if.then:                                          ; preds = %land.lhs.true
  %exception = call ptr @__cxa_allocate_exception(i64 16) #18
  invoke void @_ZNSt16invalid_argumentC1EPKc(ptr noundef nonnull align 8 dereferenceable(16) %exception, ptr noundef nonnull @.str.8)
          to label %invoke.cont17.invoke unwind label %lpad7

lpad:                                             ; preds = %entry
  %0 = landingpad { ptr, i32 }
          cleanup
  br label %ehcleanup21

lpad3:                                            ; preds = %invoke.cont
  %1 = landingpad { ptr, i32 }
          cleanup
  call void @_ZNSt7__cxx1112basic_stringIcSt11char_traitsIcESaIcEED1Ev(ptr noundef nonnull align 8 dereferenceable(32) %agg.tmp) #18
  br label %ehcleanup21

lpad7:                                            ; preds = %if.then
  %2 = landingpad { ptr, i32 }
          cleanup
  call void @__cxa_free_exception(ptr %exception) #18
  br label %ehcleanup20

lpad10:                                           ; preds = %invoke.cont17.invoke
  %3 = landingpad { ptr, i32 }
          cleanup
  br label %ehcleanup20

land.lhs.true12:                                  ; preds = %invoke.cont4
  %call13 = call noundef zeroext i1 @_ZNKSt7__cxx1112basic_stringIcSt11char_traitsIcESaIcEE5emptyEv(ptr noundef nonnull align 8 dereferenceable(32) %poolName) #18
  br i1 %call13, label %if.then14, label %if.end19

if.then14:                                        ; preds = %land.lhs.true12
  %exception15 = call ptr @__cxa_allocate_exception(i64 16) #18
  invoke void @_ZNSt16invalid_argumentC1EPKc(ptr noundef nonnull align 8 dereferenceable(16) %exception15, ptr noundef nonnull @.str.9)
          to label %invoke.cont17.invoke unwind label %lpad16

invoke.cont17.invoke:                             ; preds = %if.then, %if.then14
  %4 = phi ptr [ %exception15, %if.then14 ], [ %exception, %if.then ]
  invoke void @__cxa_throw(ptr nonnull %4, ptr nonnull @_ZTISt16invalid_argument, ptr nonnull @_ZNSt16invalid_argumentD1Ev) #23
          to label %invoke.cont17.cont unwind label %lpad10

invoke.cont17.cont:                               ; preds = %invoke.cont17.invoke
  unreachable

lpad16:                                           ; preds = %if.then14
  %5 = landingpad { ptr, i32 }
          cleanup
  call void @__cxa_free_exception(ptr %exception15) #18
  br label %ehcleanup20

if.end19:                                         ; preds = %land.lhs.true, %invoke.cont4, %land.lhs.true12
  ret void

ehcleanup20:                                      ; preds = %lpad16, %lpad10, %lpad7
  %.pn = phi { ptr, i32 } [ %3, %lpad10 ], [ %5, %lpad16 ], [ %2, %lpad7 ]
  call void @_ZNSt7__cxx1112basic_stringIcSt11char_traitsIcESaIcEED1Ev(ptr noundef nonnull align 8 dereferenceable(32) %poolName.i) #18
  call void @_ZNSt7__cxx1112basic_stringIcSt11char_traitsIcESaIcEED1Ev(ptr noundef nonnull align 8 dereferenceable(32) %params_) #18
  br label %ehcleanup21

ehcleanup21:                                      ; preds = %ehcleanup20, %lpad3, %lpad
  %.pn.pn = phi { ptr, i32 } [ %.pn, %ehcleanup20 ], [ %1, %lpad3 ], [ %0, %lpad ]
  store ptr getelementptr inbounds ({ [8 x ptr] }, ptr @_ZTVN8proxygen19ServerListGeneratorE, i64 0, i32 0, i64 2), ptr %this, align 8
  %6 = load ptr, ptr getelementptr inbounds ({ [8 x ptr] }, ptr @_ZTVN8proxygen19ServerListGeneratorE, i64 0, i32 0, i64 5), align 8
  invoke void %6(ptr noundef nonnull align 8 dereferenceable(20) %this)
          to label %_ZN8proxygen19ServerListGeneratorD2Ev.exit unwind label %terminate.lpad.i

terminate.lpad.i:                                 ; preds = %ehcleanup21
  %7 = landingpad { ptr, i32 }
          catch ptr null
  %8 = extractvalue { ptr, i32 } %7, 0
  call void @__clang_call_terminate(ptr %8) #19
  unreachable

_ZN8proxygen19ServerListGeneratorD2Ev.exit:       ; preds = %ehcleanup21
  resume { ptr, i32 } %.pn.pn
}